; Function Attrs: nounwind uwtable
define internal noundef i32 @strfilter_toupper_filter(ptr nocapture readnone %0, ptr nocapture readnone %1, ptr nocapture noundef readonly %2, ptr noundef %3, ptr noundef writeonly %4, i32 %5) #0 {
  %7 = load ptr, ptr %2, align 8
  %.not13 = icmp eq ptr %7, null
  br i1 %.not13, label %._crit_edge, label %.lr.ph

.lr.ph:                                           ; preds = %6, %.lr.ph
  %8 = phi ptr [ %17, %.lr.ph ], [ %7, %6 ]
  %.014 = phi i64 [ %16, %.lr.ph ], [ 0, %6 ]
  %9 = tail call ptr @php_stream_bucket_make_writeable(ptr noundef nonnull %8) #18
  %10 = getelementptr inbounds i8, ptr %9, i64 24
  %11 = load ptr, ptr %10, align 8
  %12 = getelementptr inbounds i8, ptr %9, i64 32
  %13 = load i64, ptr %12, align 8
  %14 = tail call ptr @php_strtr(ptr noundef %11, i64 noundef %13, ptr noundef nonnull @lowercase, ptr noundef nonnull @uppercase, i64 noundef 26) #18
  %15 = load i64, ptr %12, align 8
  %16 = add i64 %15, %.014
  tail call void @php_stream_bucket_append(ptr noundef %3, ptr noundef %9) #18
  %17 = load ptr, ptr %2, align 8
  %.not = icmp eq ptr %17, null
  br i1 %.not, label %._crit_edge, label %.lr.ph

._crit_edge:                                      ; preds = %.lr.ph, %6
  %.0.lcssa = phi i64 [ 0, %6 ], [ %16, %.lr.ph ]
  %.not12 = icmp eq ptr %4, null
  br i1 %.not12, label %19, label %18

18:                                               ; preds = %._crit_edge
  store i64 %.0.lcssa, ptr %4, align 8
  br label %19

19:                                               ; preds = %18, %._crit_edge
  ret i32 2
}